; Function Attrs: mustprogress nofree nounwind willreturn memory(read) uwtable
define hidden noundef ptr @_ZN7datalog19sparse_table_plugin3getEPNS_10table_baseE(ptr noundef readonly %t) local_unnamed_addr #13 align 2 {
entry:
  %0 = icmp eq ptr %t, null
  br i1 %0, label %dynamic_cast.end, label %dynamic_cast.notnull

dynamic_cast.notnull:                             ; preds = %entry
  %1 = tail call ptr @__dynamic_cast(ptr nonnull %t, ptr nonnull @_ZTIN7datalog10table_baseE, ptr nonnull @_ZTIN7datalog12sparse_tableE, i64 0) #25
  br label %dynamic_cast.end

dynamic_cast.end:                                 ; preds = %entry, %dynamic_cast.notnull
  %2 = phi ptr [ %1, %dynamic_cast.notnull ], [ null, %entry ]
  ret ptr %2
}